target datalayout = "e-m:e-p270:32:32-p271:32:32-p272:64:64-i64:64-i128:128-f80:128-n8:16:32:64-S128"
target triple = "x86_64-pc-linux-gnu"

%struct.OnigEncodingTypeST = type { ptr, ptr, i32, i32, ptr, ptr, ptr, ptr, ptr, ptr, ptr, ptr, ptr, ptr, ptr, ptr, ptr, i32, i32 }
%struct.st_str_end_key = type { ptr, ptr }
%struct.re_pattern_buffer = type { ptr, i32, i32, i32, i32, i32, i32, i32, i32, i32, i32, i32, i32, i32, ptr, ptr, ptr, ptr, i32, i32, i32, i32, i64, i64, i32, ptr, ptr, [256 x i8], ptr, ptr, i64, i64, i64, ptr }
%struct.NameEntry = type { ptr, i64, i32, i32, i32, ptr }

; Function Attrs: nounwind sspstrong uwtable
define dso_local i32 @onig_st_insert_strend(ptr noundef %0, ptr noundef %1, ptr noundef %2, i64 noundef %3) #0 {
  %5 = alloca ptr, align 8
  %6 = alloca ptr, align 8
  %7 = alloca ptr, align 8
  %8 = alloca i64, align 8
  %9 = alloca ptr, align 8
  %10 = alloca i32, align 4
  store ptr %0, ptr %5, align 8, !tbaa !12
  store ptr %1, ptr %6, align 8, !tbaa !7
  store ptr %2, ptr %7, align 8, !tbaa !7
  store i64 %3, ptr %8, align 8, !tbaa !15
  call void @llvm.lifetime.start.p0(i64 8, ptr %9) #13
  call void @llvm.lifetime.start.p0(i64 4, ptr %10) #13
  %11 = call noalias ptr @malloc(i64 noundef 16) #14
  store ptr %11, ptr %9, align 8, !tbaa !12
  %12 = load ptr, ptr %6, align 8, !tbaa !7
  %13 = load ptr, ptr %9, align 8, !tbaa !12
  %14 = getelementptr inbounds nuw %struct.st_str_end_key, ptr %13, i32 0, i32 0
  store ptr %12, ptr %14, align 8, !tbaa !20
  %15 = load ptr, ptr %7, align 8, !tbaa !7
  %16 = load ptr, ptr %9, align 8, !tbaa !12
  %17 = getelementptr inbounds nuw %struct.st_str_end_key, ptr %16, i32 0, i32 1
  store ptr %15, ptr %17, align 8, !tbaa !18
  %18 = load ptr, ptr %5, align 8, !tbaa !12
  %19 = load ptr, ptr %9, align 8, !tbaa !12
  %20 = ptrtoint ptr %19 to i64
  %21 = load i64, ptr %8, align 8, !tbaa !15
  %22 = call i32 @rb_st_insert(ptr noundef %18, i64 noundef %20, i64 noundef %21)
  store i32 %22, ptr %10, align 4, !tbaa !13
  %23 = load i32, ptr %10, align 4, !tbaa !13
  %24 = icmp ne i32 %23, 0
  br i1 %24, label %25, label %27

25:                                               ; preds = %4
  %26 = load ptr, ptr %9, align 8, !tbaa !12
  call void @free(ptr noundef %26) #13
  br label %27

27:                                               ; preds = %25, %4
  %28 = load i32, ptr %10, align 4, !tbaa !13
  call void @llvm.lifetime.end.p0(i64 4, ptr %10) #13
  call void @llvm.lifetime.end.p0(i64 8, ptr %9) #13
  ret i32 %28
}

; Function Attrs: nounwind sspstrong uwtable
define internal ptr @strdup_with_null(ptr noundef %0, ptr noundef %1, ptr noundef %2) #0 {
  %4 = alloca ptr, align 8
  %5 = alloca ptr, align 8
  %6 = alloca ptr, align 8
  %7 = alloca ptr, align 8
  %8 = alloca i64, align 8
  %9 = alloca i32, align 4
  %10 = alloca i32, align 4
  %11 = alloca ptr, align 8
  %12 = alloca i32, align 4
  store ptr %0, ptr %5, align 8, !tbaa !79
  store ptr %1, ptr %6, align 8, !tbaa !7
  store ptr %2, ptr %7, align 8, !tbaa !7
  call void @llvm.lifetime.start.p0(i64 8, ptr %8) #13
  call void @llvm.lifetime.start.p0(i64 4, ptr %9) #13
  call void @llvm.lifetime.start.p0(i64 4, ptr %10) #13
  call void @llvm.lifetime.start.p0(i64 8, ptr %11) #13
  %13 = load ptr, ptr %7, align 8, !tbaa !7
  %14 = load ptr, ptr %6, align 8, !tbaa !7
  %15 = ptrtoint ptr %13 to i64
  %16 = ptrtoint ptr %14 to i64
  %17 = sub i64 %15, %16
  store i64 %17, ptr %8, align 8, !tbaa !15
  %18 = load ptr, ptr %5, align 8, !tbaa !79
  %19 = getelementptr inbounds nuw %struct.OnigEncodingTypeST, ptr %18, i32 0, i32 3
  %20 = load i32, ptr %19, align 4, !tbaa !83
  store i32 %20, ptr %9, align 4, !tbaa !13
  %21 = load i64, ptr %8, align 8, !tbaa !15
  %22 = load i32, ptr %9, align 4, !tbaa !13
  %23 = sext i32 %22 to i64
  %24 = add i64 %21, %23
  %25 = call noalias ptr @malloc(i64 noundef %24) #14
  store ptr %25, ptr %11, align 8, !tbaa !7
  %26 = load ptr, ptr %11, align 8, !tbaa !7
  %27 = icmp eq ptr %26, null
  br i1 %27, label %28, label %29

28:                                               ; preds = %3
  store ptr null, ptr %4, align 8
  store i32 1, ptr %12, align 4
  br label %50

29:                                               ; preds = %3
  %30 = load ptr, ptr %11, align 8, !tbaa !7
  %31 = load ptr, ptr %6, align 8, !tbaa !7
  %32 = load i64, ptr %8, align 8, !tbaa !15
  %33 = call ptr @memcpy.inline(ptr noundef %30, ptr noundef %31, i64 noundef %32) #13
  store i32 0, ptr %10, align 4, !tbaa !13
  br label %34

34:                                               ; preds = %45, %29
  %35 = load i32, ptr %10, align 4, !tbaa !13
  %36 = load i32, ptr %9, align 4, !tbaa !13
  %37 = icmp slt i32 %35, %36
  br i1 %37, label %38, label %48

38:                                               ; preds = %34
  %39 = load ptr, ptr %11, align 8, !tbaa !7
  %40 = load i64, ptr %8, align 8, !tbaa !15
  %41 = load i32, ptr %10, align 4, !tbaa !13
  %42 = sext i32 %41 to i64
  %43 = add i64 %40, %42
  %44 = getelementptr i8, ptr %39, i64 %43
  store i8 0, ptr %44, align 1, !tbaa !17
  br label %45

45:                                               ; preds = %38
  %46 = load i32, ptr %10, align 4, !tbaa !13
  %47 = add i32 %46, 1
  store i32 %47, ptr %10, align 4, !tbaa !13
  br label %34, !llvm.loop !118

48:                                               ; preds = %34
  %49 = load ptr, ptr %11, align 8, !tbaa !7
  store ptr %49, ptr %4, align 8
  store i32 1, ptr %12, align 4
  br label %50

50:                                               ; preds = %48, %28
  call void @llvm.lifetime.end.p0(i64 8, ptr %11) #13
  call void @llvm.lifetime.end.p0(i64 4, ptr %10) #13
  call void @llvm.lifetime.end.p0(i64 4, ptr %9) #13
  call void @llvm.lifetime.end.p0(i64 8, ptr %8) #13
  %51 = load ptr, ptr %4, align 8
  ret ptr %51
}

; Function Attrs: alwaysinline nounwind
define internal ptr @memcpy.inline(ptr noalias nonnull %0, ptr noalias nonnull %1, i64 %2) #2 {
  %4 = alloca ptr, align 8
  %5 = alloca ptr, align 8
  %6 = alloca i64, align 8
  store ptr %0, ptr %4, align 8, !tbaa !12
  store ptr %1, ptr %5, align 8, !tbaa !12
  store i64 %2, ptr %6, align 8, !tbaa !15
  %7 = load ptr, ptr %4, align 8, !tbaa !12
  %8 = load ptr, ptr %5, align 8, !tbaa !12
  %9 = load i64, ptr %6, align 8, !tbaa !15
  %10 = load ptr, ptr %4, align 8, !tbaa !12
  %11 = call i64 @llvm.objectsize.i64.p0(ptr %10, i1 false, i1 true, i1 false)
  %12 = call ptr @__memcpy_chk(ptr noundef %7, ptr noundef %8, i64 noundef %9, i64 noundef %11) #13
  ret ptr %12
}

; Function Attrs: nounwind sspstrong uwtable
define internal i32 @copy_named_captures_iter(ptr noundef %0, ptr noundef %1, i32 noundef %2, ptr noundef %3, ptr noundef %4, ptr noundef %5) #0 {
  %7 = alloca i32, align 4
  %8 = alloca ptr, align 8
  %9 = alloca ptr, align 8
  %10 = alloca i32, align 4
  %11 = alloca ptr, align 8
  %12 = alloca ptr, align 8
  %13 = alloca ptr, align 8
  %14 = alloca ptr, align 8
  %15 = alloca ptr, align 8
  %16 = alloca i32, align 4
  %17 = alloca ptr, align 8
  store ptr %0, ptr %8, align 8, !tbaa !7
  store ptr %1, ptr %9, align 8, !tbaa !7
  store i32 %2, ptr %10, align 4, !tbaa !13
  store ptr %3, ptr %11, align 8, !tbaa !45
  store ptr %4, ptr %12, align 8, !tbaa !26
  store ptr %5, ptr %13, align 8, !tbaa !12
  call void @llvm.lifetime.start.p0(i64 8, ptr %14) #13
  %18 = load ptr, ptr %13, align 8, !tbaa !12
  store ptr %18, ptr %14, align 8, !tbaa !32
  call void @llvm.lifetime.start.p0(i64 8, ptr %15) #13
  %19 = call noalias ptr @malloc(i64 noundef 40) #14
  store ptr %19, ptr %15, align 8, !tbaa !12
  %20 = load ptr, ptr %15, align 8, !tbaa !12
  %21 = icmp eq ptr %20, null
  br i1 %21, label %22, label %23

22:                                               ; preds = %6
  store i32 -1, ptr %7, align 4
  store i32 1, ptr %16, align 4
  br label %101

23:                                               ; preds = %6
  %24 = load ptr, ptr %9, align 8, !tbaa !7
  %25 = load ptr, ptr %8, align 8, !tbaa !7
  %26 = ptrtoint ptr %24 to i64
  %27 = ptrtoint ptr %25 to i64
  %28 = sub i64 %26, %27
  %29 = load ptr, ptr %15, align 8, !tbaa !12
  %30 = getelementptr inbounds nuw %struct.NameEntry, ptr %29, i32 0, i32 1
  store i64 %28, ptr %30, align 8, !tbaa !46
  %31 = load i32, ptr %10, align 4, !tbaa !13
  %32 = load ptr, ptr %15, align 8, !tbaa !12
  %33 = getelementptr inbounds nuw %struct.NameEntry, ptr %32, i32 0, i32 2
  store i32 %31, ptr %33, align 8, !tbaa !48
  %34 = load i32, ptr %10, align 4, !tbaa !13
  %35 = load ptr, ptr %15, align 8, !tbaa !12
  %36 = getelementptr inbounds nuw %struct.NameEntry, ptr %35, i32 0, i32 3
  store i32 %34, ptr %36, align 4, !tbaa !49
  %37 = load ptr, ptr %11, align 8, !tbaa !45
  %38 = getelementptr i32, ptr %37, i64 0
  %39 = load i32, ptr %38, align 4, !tbaa !13
  %40 = load ptr, ptr %15, align 8, !tbaa !12
  %41 = getelementptr inbounds nuw %struct.NameEntry, ptr %40, i32 0, i32 4
  store i32 %39, ptr %41, align 8, !tbaa !50
  %42 = load i32, ptr %10, align 4, !tbaa !13
  %43 = sext i32 %42 to i64
  %44 = mul i64 %43, 8
  %45 = call noalias ptr @malloc(i64 noundef %44) #14
  %46 = load ptr, ptr %15, align 8, !tbaa !12
  %47 = getelementptr inbounds nuw %struct.NameEntry, ptr %46, i32 0, i32 5
  store ptr %45, ptr %47, align 8, !tbaa !51
  %48 = load ptr, ptr %15, align 8, !tbaa !12
  %49 = getelementptr inbounds nuw %struct.NameEntry, ptr %48, i32 0, i32 5
  %50 = load ptr, ptr %49, align 8, !tbaa !51
  %51 = icmp eq ptr %50, null
  br i1 %51, label %52, label %54

52:                                               ; preds = %23
  %53 = load ptr, ptr %15, align 8, !tbaa !12
  call void @free(ptr noundef %53) #13
  store i32 -1, ptr %7, align 4
  store i32 1, ptr %16, align 4
  br label %101

54:                                               ; preds = %23
  %55 = load ptr, ptr %15, align 8, !tbaa !12
  %56 = getelementptr inbounds nuw %struct.NameEntry, ptr %55, i32 0, i32 5
  %57 = load ptr, ptr %56, align 8, !tbaa !51
  %58 = load ptr, ptr %11, align 8, !tbaa !45
  %59 = load i32, ptr %10, align 4, !tbaa !13
  %60 = sext i32 %59 to i64
  %61 = mul i64 %60, 4
  %62 = call ptr @memcpy.inline(ptr noundef %57, ptr noundef %58, i64 noundef %61) #13
  call void @llvm.lifetime.start.p0(i64 8, ptr %17) #13
  %63 = load ptr, ptr %12, align 8, !tbaa !26
  %64 = getelementptr inbounds nuw %struct.re_pattern_buffer, ptr %63, i32 0, i32 15
  %65 = load ptr, ptr %64, align 8, !tbaa !43
  %66 = load ptr, ptr %8, align 8, !tbaa !7
  %67 = load ptr, ptr %9, align 8, !tbaa !7
  %68 = call ptr @strdup_with_null(ptr noundef %65, ptr noundef %66, ptr noundef %67)
  store ptr %68, ptr %17, align 8, !tbaa !7
  %69 = load ptr, ptr %17, align 8, !tbaa !7
  %70 = icmp eq ptr %69, null
  br i1 %70, label %71, label %76

71:                                               ; preds = %54
  %72 = load ptr, ptr %15, align 8, !tbaa !12
  %73 = getelementptr inbounds nuw %struct.NameEntry, ptr %72, i32 0, i32 5
  %74 = load ptr, ptr %73, align 8, !tbaa !51
  call void @free(ptr noundef %74) #13
  %75 = load ptr, ptr %15, align 8, !tbaa !12
  call void @free(ptr noundef %75) #13
  store i32 -1, ptr %7, align 4
  store i32 1, ptr %16, align 4
  br label %100

76:                                               ; preds = %54
  %77 = load ptr, ptr %17, align 8, !tbaa !7
  %78 = load ptr, ptr %15, align 8, !tbaa !12
  %79 = getelementptr inbounds nuw %struct.NameEntry, ptr %78, i32 0, i32 0
  store ptr %77, ptr %79, align 8, !tbaa !52
  %80 = load ptr, ptr %14, align 8, !tbaa !32
  %81 = load ptr, ptr %17, align 8, !tbaa !7
  %82 = load ptr, ptr %17, align 8, !tbaa !7
  %83 = load ptr, ptr %15, align 8, !tbaa !12
  %84 = getelementptr inbounds nuw %struct.NameEntry, ptr %83, i32 0, i32 1
  %85 = load i64, ptr %84, align 8, !tbaa !46
  %86 = getelementptr i8, ptr %82, i64 %85
  %87 = load ptr, ptr %15, align 8, !tbaa !12
  %88 = ptrtoint ptr %87 to i64
  %89 = call i32 @onig_st_insert_strend(ptr noundef %80, ptr noundef %81, ptr noundef %86, i64 noundef %88)
  %90 = icmp ne i32 %89, 0
  br i1 %90, label %91, label %99

91:                                               ; preds = %76
  %92 = load ptr, ptr %15, align 8, !tbaa !12
  %93 = getelementptr inbounds nuw %struct.NameEntry, ptr %92, i32 0, i32 0
  %94 = load ptr, ptr %93, align 8, !tbaa !52
  call void @free(ptr noundef %94) #13
  %95 = load ptr, ptr %15, align 8, !tbaa !12
  %96 = getelementptr inbounds nuw %struct.NameEntry, ptr %95, i32 0, i32 5
  %97 = load ptr, ptr %96, align 8, !tbaa !51
  call void @free(ptr noundef %97) #13
  %98 = load ptr, ptr %15, align 8, !tbaa !12
  call void @free(ptr noundef %98) #13
  store i32 -1, ptr %7, align 4
  store i32 1, ptr %16, align 4
  br label %100

99:                                               ; preds = %76
  store i32 0, ptr %7, align 4
  store i32 1, ptr %16, align 4
  br label %100

100:                                              ; preds = %99, %91, %71
  call void @llvm.lifetime.end.p0(i64 8, ptr %17) #13
  br label %101

101:                                              ; preds = %100, %52, %22
  call void @llvm.lifetime.end.p0(i64 8, ptr %15) #13
  call void @llvm.lifetime.end.p0(i64 8, ptr %14) #13
  %102 = load i32, ptr %7, align 4
  ret i32 %102
}