; Function Attrs: nounwind sspstrong uwtable
define internal range(i32 -1, 1) i32 @copy_named_captures_iter(ptr noundef %0, ptr noundef %1, i32 noundef %2, ptr noundef readonly captures(none) %3, ptr noundef readonly captures(none) %4, ptr noundef %5) #5 {
  %7 = tail call noalias dereferenceable_or_null(40) ptr @malloc(i64 noundef 40) #26
  %8 = icmp eq ptr %7, null
  br i1 %8, label %onig_st_insert_strend.exit.thread, label %9

9:                                                ; preds = %6
  %10 = ptrtoint ptr %1 to i64
  %11 = ptrtoint ptr %0 to i64
  %12 = sub i64 %10, %11
  %13 = getelementptr inbounds nuw i8, ptr %7, i64 8
  store i64 %12, ptr %13, align 8, !tbaa !39
  %14 = getelementptr inbounds nuw i8, ptr %7, i64 16
  store i32 %2, ptr %14, align 8, !tbaa !41
  %15 = getelementptr inbounds nuw i8, ptr %7, i64 20
  store i32 %2, ptr %15, align 4, !tbaa !42
  %16 = load i32, ptr %3, align 4, !tbaa !11
  %17 = getelementptr inbounds nuw i8, ptr %7, i64 24
  store i32 %16, ptr %17, align 8, !tbaa !43
  %18 = sext i32 %2 to i64
  %19 = shl nsw i64 %18, 3
  %20 = tail call noalias ptr @malloc(i64 noundef %19) #26
  %21 = getelementptr inbounds nuw i8, ptr %7, i64 32
  store ptr %20, ptr %21, align 8, !tbaa !44
  %22 = icmp eq ptr %20, null
  br i1 %22, label %onig_st_insert_strend.exit.thread.sink.split, label %23

23:                                               ; preds = %9
  %24 = shl nsw i64 %18, 2
  tail call void @llvm.memcpy.p0.p0.i64(ptr noundef nonnull align 1 %20, ptr noundef nonnull align 1 %3, i64 noundef %24, i1 noundef false) #25
  %25 = getelementptr inbounds nuw i8, ptr %4, i64 72
  %26 = load ptr, ptr %25, align 8, !tbaa !37
  %27 = getelementptr i8, ptr %26, i64 20
  %.val = load i32, ptr %27, align 4, !tbaa !45
  %28 = sext i32 %.val to i64
  %29 = add i64 %12, %28
  %30 = tail call noalias ptr @malloc(i64 noundef %29) #26
  %31 = icmp eq ptr %30, null
  br i1 %31, label %onig_st_insert_strend.exit.thread.sink.split.sink.split, label %32

32:                                               ; preds = %23
  tail call void @llvm.memcpy.p0.p0.i64(ptr noundef nonnull align 1 %30, ptr noundef nonnull align 1 %0, i64 noundef %12, i1 noundef false) #25
  %33 = icmp sgt i32 %.val, 0
  br i1 %33, label %.lr.ph.i, label %36

.lr.ph.i:                                         ; preds = %32
  %34 = getelementptr i8, ptr %30, i64 %12
  %35 = zext nneg i32 %.val to i64
  tail call void @llvm.memset.p0.i64(ptr align 1 %34, i8 0, i64 %35, i1 false), !tbaa !13
  br label %36

36:                                               ; preds = %32, %.lr.ph.i
  store ptr %30, ptr %7, align 8, !tbaa !47
  %37 = getelementptr i8, ptr %30, i64 %12
  %38 = ptrtoint ptr %7 to i64
  %39 = tail call noalias dereferenceable_or_null(16) ptr @malloc(i64 noundef 16) #26
  store ptr %30, ptr %39, align 8, !tbaa !17
  %40 = getelementptr inbounds nuw i8, ptr %39, i64 8
  store ptr %37, ptr %40, align 8, !tbaa !14
  %41 = ptrtoint ptr %39 to i64
  %42 = tail call i32 @rb_st_insert(ptr noundef %5, i64 noundef %41, i64 noundef %38) #25
  %.not.i = icmp eq i32 %42, 0
  br i1 %.not.i, label %onig_st_insert_strend.exit.thread, label %43

43:                                               ; preds = %36
  tail call void @free(ptr noundef nonnull %39) #25
  %44 = load ptr, ptr %7, align 8, !tbaa !47
  tail call void @free(ptr noundef %44) #25
  %45 = load ptr, ptr %21, align 8, !tbaa !44
  br label %onig_st_insert_strend.exit.thread.sink.split.sink.split

onig_st_insert_strend.exit.thread.sink.split.sink.split: ; preds = %23, %43
  %.sink = phi ptr [ %45, %43 ], [ %20, %23 ]
  tail call void @free(ptr noundef %.sink) #25
  br label %onig_st_insert_strend.exit.thread.sink.split

onig_st_insert_strend.exit.thread.sink.split:     ; preds = %onig_st_insert_strend.exit.thread.sink.split.sink.split, %9
  tail call void @free(ptr noundef nonnull %7) #25
  br label %onig_st_insert_strend.exit.thread

onig_st_insert_strend.exit.thread:                ; preds = %onig_st_insert_strend.exit.thread.sink.split, %36, %6
  %.0 = phi i32 [ -1, %6 ], [ 0, %36 ], [ -1, %onig_st_insert_strend.exit.thread.sink.split ]
  ret i32 %.0
}